target datalayout = "e-m:e-p270:32:32-p271:32:32-p272:64:64-i64:64-i128:128-f80:128-n8:16:32:64-S128"
target triple = "x86_64-pc-linux-gnu"

%struct.PosPairCode = type { double, i32, i32 }

; Function Attrs: nounwind uwtable
define internal i32 @cmp_scores(ptr noundef %0, ptr noundef %1) #1 {
  %3 = alloca ptr, align 8
  %4 = alloca ptr, align 8
  %5 = alloca ptr, align 8
  %6 = alloca ptr, align 8
  store ptr %0, ptr %3, align 8, !tbaa !101
  store ptr %1, ptr %4, align 8, !tbaa !101
  call void @llvm.lifetime.start.p0(i64 8, ptr %5) #12
  %7 = load ptr, ptr %3, align 8, !tbaa !101
  store ptr %7, ptr %5, align 8, !tbaa !133
  call void @llvm.lifetime.start.p0(i64 8, ptr %6) #12
  %8 = load ptr, ptr %4, align 8, !tbaa !101
  store ptr %8, ptr %6, align 8, !tbaa !133
  %9 = load ptr, ptr %5, align 8, !tbaa !133
  %10 = getelementptr inbounds nuw %struct.PosPairCode, ptr %9, i32 0, i32 0
  %11 = load double, ptr %10, align 8, !tbaa !113
  %12 = load ptr, ptr %6, align 8, !tbaa !133
  %13 = getelementptr inbounds nuw %struct.PosPairCode, ptr %12, i32 0, i32 0
  %14 = load double, ptr %13, align 8, !tbaa !113
  %15 = fcmp nsz ogt double %11, %14
  %16 = zext i1 %15 to i32
  %17 = load ptr, ptr %5, align 8, !tbaa !133
  %18 = getelementptr inbounds nuw %struct.PosPairCode, ptr %17, i32 0, i32 0
  %19 = load double, ptr %18, align 8, !tbaa !113
  %20 = load ptr, ptr %6, align 8, !tbaa !133
  %21 = getelementptr inbounds nuw %struct.PosPairCode, ptr %20, i32 0, i32 0
  %22 = load double, ptr %21, align 8, !tbaa !113
  %23 = fcmp nsz olt double %19, %22
  %24 = zext i1 %23 to i32
  %25 = sub nsw i32 %16, %24
  call void @llvm.lifetime.end.p0(i64 8, ptr %6) #12
  call void @llvm.lifetime.end.p0(i64 8, ptr %5) #12
  ret i32 %25
}