; Function Attrs: mustprogress nofree norecurse nosync nounwind willreturn memory(argmem: read) uwtable
define internal range(i32 -1, 2) i32 @cmp_scores(ptr noundef readonly captures(none) %0, ptr noundef readonly captures(none) %1) #8 {
  %3 = load double, ptr %0, align 8, !tbaa !100
  %4 = load double, ptr %1, align 8, !tbaa !100
  %5 = fcmp nsz ogt double %3, %4
  %6 = zext i1 %5 to i32
  %7 = fcmp nsz olt double %3, %4
  %.neg = sext i1 %7 to i32
  %8 = add nsw i32 %.neg, %6
  ret i32 %8
}